; Function Attrs: nounwind uwtable
define noalias noundef ptr @Bac_NtkTransformToPtrInputs(ptr noundef readonly captures(none) %0) local_unnamed_addr #0 {
  %2 = getelementptr i8, ptr %0, i64 36
  %.val9 = load i32, ptr %2, align 4, !tbaa !77
  %3 = tail call noalias dereferenceable_or_null(16) ptr @malloc(i64 noundef 16) #20
  %4 = getelementptr inbounds nuw i8, ptr %3, i64 4
  store i32 0, ptr %4, align 4, !tbaa !35
  store i32 %.val9, ptr %3, align 8, !tbaa !36
  %.not.i = icmp eq i32 %.val9, 0
  br i1 %.not.i, label %Vec_PtrAllocExact.exit.thread, label %Vec_PtrAllocExact.exit

Vec_PtrAllocExact.exit.thread:                    ; preds = %1
  %5 = getelementptr inbounds nuw i8, ptr %3, i64 8
  store ptr null, ptr %5, align 8, !tbaa !32
  br label %.critedge

Vec_PtrAllocExact.exit:                           ; preds = %1
  %6 = sext i32 %.val9 to i64
  %7 = shl nsw i64 %6, 3
  %8 = tail call noalias ptr @malloc(i64 noundef %7) #20
  %9 = getelementptr inbounds nuw i8, ptr %3, i64 8
  store ptr %8, ptr %9, align 8, !tbaa !32
  %10 = icmp sgt i32 %.val9, 0
  br i1 %10, label %.lr.ph, label %.critedge

.lr.ph:                                           ; preds = %Vec_PtrAllocExact.exit
  %11 = getelementptr i8, ptr %0, i64 40
  %12 = getelementptr i8, ptr %0, i64 88
  %13 = getelementptr i8, ptr %0, i64 136
  %14 = getelementptr i8, ptr %0, i64 104
  br label %15

15:                                               ; preds = %.lr.ph, %Vec_PtrPush.exit
  %16 = phi i32 [ %.val9, %.lr.ph ], [ %56, %Vec_PtrPush.exit ]
  %17 = phi i32 [ 0, %.lr.ph ], [ %58, %Vec_PtrPush.exit ]
  %indvars.iv = phi i64 [ 0, %.lr.ph ], [ %indvars.iv.next, %Vec_PtrPush.exit ]
  %.val = load ptr, ptr %11, align 8, !tbaa !78
  %18 = getelementptr inbounds nuw i32, ptr %.val, i64 %indvars.iv
  %19 = load i32, ptr %18, align 4, !tbaa !31
  %.val.i.i.i = load ptr, ptr %12, align 8, !tbaa !85
  %20 = sext i32 %19 to i64
  %21 = getelementptr inbounds i8, ptr %.val.i.i.i, i64 %20
  %22 = load i8, ptr %21, align 1, !tbaa !27
  %23 = and i8 %22, -4
  %narrow.i.not.i.i.i = icmp eq i8 %23, 4
  br i1 %narrow.i.not.i.i.i, label %24, label %29

24:                                               ; preds = %15
  %.val6.i.i.i = load ptr, ptr %14, align 8, !tbaa !78
  %25 = getelementptr inbounds i32, ptr %.val6.i.i.i, i64 %20
  %26 = load i32, ptr %25, align 4, !tbaa !31
  %.val7.i.i.i = load ptr, ptr %13, align 8, !tbaa !78
  %27 = sext i32 %26 to i64
  %28 = getelementptr inbounds i32, ptr %.val7.i.i.i, i64 %27
  br label %Bac_ObjNameStr.exit

29:                                               ; preds = %15
  %.val8.i.i.i = load ptr, ptr %13, align 8, !tbaa !78
  %30 = getelementptr inbounds i32, ptr %.val8.i.i.i, i64 %20
  br label %Bac_ObjNameStr.exit

Bac_ObjNameStr.exit:                              ; preds = %24, %29
  %.in.i.i.i = phi ptr [ %28, %24 ], [ %30, %29 ]
  %31 = load i32, ptr %.in.i.i.i, align 4, !tbaa !31
  %32 = ashr i32 %31, 2
  %.val.i = load ptr, ptr %0, align 8, !tbaa !64
  %33 = getelementptr i8, ptr %.val.i, i64 16
  %.val.val.i = load ptr, ptr %33, align 8, !tbaa !76
  %34 = tail call ptr @Abc_NamStr(ptr noundef %.val.val.i, i32 noundef %32) #19
  %35 = icmp eq i32 %17, %16
  br i1 %35, label %36, label %.Vec_PtrGrow.exit11_crit_edge.i

.Vec_PtrGrow.exit11_crit_edge.i:                  ; preds = %Bac_ObjNameStr.exit
  %.pre.i = load ptr, ptr %9, align 8, !tbaa !32
  br label %Vec_PtrPush.exit

36:                                               ; preds = %Bac_ObjNameStr.exit
  %37 = icmp slt i32 %16, 16
  br i1 %37, label %38, label %45

38:                                               ; preds = %36
  %39 = load ptr, ptr %9, align 8, !tbaa !32
  %.not9.i.i = icmp eq ptr %39, null
  br i1 %.not9.i.i, label %42, label %40

40:                                               ; preds = %38
  %41 = tail call dereferenceable_or_null(128) ptr @realloc(ptr noundef nonnull %39, i64 noundef 128) #21
  br label %Vec_PtrGrow.exit.i

42:                                               ; preds = %38
  %43 = tail call noalias dereferenceable_or_null(128) ptr @malloc(i64 noundef 128) #20
  br label %Vec_PtrGrow.exit.i

Vec_PtrGrow.exit.i:                               ; preds = %42, %40
  %44 = phi ptr [ %41, %40 ], [ %43, %42 ]
  store ptr %44, ptr %9, align 8, !tbaa !32
  store i32 16, ptr %3, align 8, !tbaa !36
  br label %Vec_PtrPush.exit

45:                                               ; preds = %36
  %46 = shl nuw nsw i32 %16, 1
  %47 = load ptr, ptr %9, align 8, !tbaa !32
  %.not9.i10.i = icmp eq ptr %47, null
  %48 = zext nneg i32 %46 to i64
  %49 = shl nuw nsw i64 %48, 3
  br i1 %.not9.i10.i, label %52, label %50

50:                                               ; preds = %45
  %51 = tail call ptr @realloc(ptr noundef nonnull %47, i64 noundef %49) #21
  br label %54

52:                                               ; preds = %45
  %53 = tail call noalias ptr @malloc(i64 noundef %49) #20
  br label %54

54:                                               ; preds = %52, %50
  %55 = phi ptr [ %51, %50 ], [ %53, %52 ]
  store ptr %55, ptr %9, align 8, !tbaa !32
  store i32 %46, ptr %3, align 8, !tbaa !36
  br label %Vec_PtrPush.exit

Vec_PtrPush.exit:                                 ; preds = %.Vec_PtrGrow.exit11_crit_edge.i, %Vec_PtrGrow.exit.i, %54
  %56 = phi i32 [ %16, %.Vec_PtrGrow.exit11_crit_edge.i ], [ %46, %54 ], [ 16, %Vec_PtrGrow.exit.i ]
  %57 = phi ptr [ %.pre.i, %.Vec_PtrGrow.exit11_crit_edge.i ], [ %55, %54 ], [ %44, %Vec_PtrGrow.exit.i ]
  %58 = add nuw nsw i32 %17, 1
  store i32 %58, ptr %4, align 4, !tbaa !35
  %59 = zext nneg i32 %17 to i64
  %60 = getelementptr inbounds nuw ptr, ptr %57, i64 %59
  store ptr %34, ptr %60, align 8, !tbaa !34
  %indvars.iv.next = add nuw nsw i64 %indvars.iv, 1
  %.val10 = load i32, ptr %2, align 4, !tbaa !77
  %61 = sext i32 %.val10 to i64
  %62 = icmp slt i64 %indvars.iv.next, %61
  br i1 %62, label %15, label %.critedge, !llvm.loop !109

.critedge:                                        ; preds = %Vec_PtrPush.exit, %Vec_PtrAllocExact.exit.thread, %Vec_PtrAllocExact.exit
  ret ptr %3
}